Certificate:
    Data:
        Version: 3 (0x2)
        Serial Number: 268435670 (0x100000d6)
        Signature Algorithm: sha256WithRSAEncryption
        Issuer: C=DE, ST=Hessen, O=privacyidea, CN=CA001
        Validity
            Not Before: Apr 11 15:21:41 2022 GMT
            Not After : Apr 11 15:21:41 2023 GMT
        Subject: CN=selfservice,CN=user,O=realm1/emailAddress=meine
        Subject Public Key Info:
            Public Key Algorithm: rsaEncryption
                RSA Public-Key: (2048 bit)
                Modulus:
                    00:cf:3c:d4:33:0e:12:c4:e6:da:cd:b6:56:a1:1c:
                    26:bb:26:1c:8a:4a:73:a8:58:8a:b6:1e:b3:8b:99:
                    d2:1d:07:c2:92:89:79:c0:69:d8:c8:df:28:61:98:
                    1e:b3:fe:ae:2b:bd:78:a9:f7:6e:47:dc:a3:a0:16:
                    8c:85:02:c1:4e:92:fd:72:6e:f0:c8:03:29:9b:b8:
                    00:6e:c0:83:95:c8:34:20:36:9c:b3:e5:e4:e6:76:
                    73:a3:1a:ad:40:96:e0:53:54:00:ec:76:79:9a:c6:
                    0d:7e:b6:bd:29:ec:83:f3:cb:89:a4:cb:6c:00:ba:
                    0c:c5:78:0f:ff:69:b8:94:f4:04:70:43:3f:d8:9e:
                    d7:a7:fb:5d:ce:75:8e:da:e7:c4:07:b1:9d:de:6f:
                    88:4b:b6:4d:9a:cf:f9:bc:fa:9f:cd:32:6d:f6:3a:
                    0b:0d:23:42:78:ec:97:42:bf:0e:4d:60:56:e1:d3:
                    02:f2:19:cb:84:57:90:e5:70:a1:a2:83:35:86:e2:
                    da:86:9f:f9:8a:c4:79:b3:52:28:da:cb:bb:34:ca:
                    d3:da:91:4a:cf:8d:76:a2:b2:6b:9b:f9:96:fd:09:
                    2a:da:11:23:4d:f0:cb:d6:b2:b1:0e:12:6c:9a:19:
                    65:98:87:ca:e4:ee:24:ce:44:ac:90:8f:9d:1b:c5:
                    2a:9d
                Exponent: 65537 (0x10001)
        X509v3 extensions:
            X509v3 Key Usage: 
                Digital Signature, Key Encipherment
            X509v3 Basic Constraints: 
                CA:FALSE
            Netscape Cert Type: 
                SSL Server
            Netscape Comment: 
                OpenSSL Generated Server Certificate
            X509v3 Subject Key Identifier: 
                4D:07:90:AD:FF:1D:0D:E7:1A:DD:D6:2E:FA:BA:34:CB:AA:1F:24:C6
            X509v3 Authority Key Identifier: 
                keyid:F4:A7:C0:CC:91:46:AF:64:F3:91:F2:27:F8:C8:B2:6F:8A:87:32:73
                DirName:/C=DE/ST=Hessen/O=privacyidea/CN=CA001
                serial:FB:C8:EB:AC:83:CD:12:07

            X509v3 Extended Key Usage: 
                TLS Web Server Authentication
    Signature Algorithm: sha256WithRSAEncryption
         7e:e1:08:f1:38:1e:b2:9e:43:b2:ff:91:3c:6d:75:a8:ee:b5:
         7a:ca:12:ae:8c:bf:63:b8:cf:16:84:3e:87:b7:8d:45:c2:33:
         75:e8:46:68:d8:b3:c0:81:81:07:29:ab:7b:7b:04:09:97:b5:
         a6:a8:a0:fd:1f:aa:f6:b1:fa:26:fe:38:fd:2b:6f:05:d2:31:
         15:28:25:b9:10:eb:16:17:ba:fa:31:cb:be:d6:d7:03:aa:4b:
         47:43:a5:d8:25:0a:1a:cc:79:cf:bd:7e:c4:41:35:9e:ce:a8:
         a4:cd:db:8c:40:8c:9b:9d:19:17:05:cd:36:d2:83:29:f7:2d:
         ef:82:22:21:6f:44:09:23:6c:50:90:c1:31:9d:b4:93:e9:ed:
         4b:8e:27:42:09:35:5d:9e:d3:85:63:15:9d:d4:fa:8b:4f:ec:
         3f:f7:b9:47:fe:a0:f2:01:33:0a:be:1b:ac:24:da:c7:af:de:
         88:6e:44:08:b2:28:95:11:d4:cd:ce:a3:f5:dc:51:25:6f:75:
         6f:c7:ed:70:7f:df:91:7e:cd:7d:66:32:bb:f9:99:4c:ea:72:
         24:87:10:df:98:66:3c:56:3a:53:c3:70:bc:aa:00:25:8d:4f:
         cf:5f:f5:5b:7d:93:19:dd:33:dd:4b:04:9b:82:02:c2:57:2a:
         d0:53:33:88
-----BEGIN CERTIFICATE-----
MIIEDzCCAvegAwIBAgIEEAAA1jANBgkqhkiG9w0BAQsFADBEMQswCQYDVQQGEwJE
RTEPMA0GA1UECAwGSGVzc2VuMRQwEgYDVQQKDAtwcml2YWN5aWRlYTEOMAwGA1UE
AwwFQ0EwMDEwHhcNMjIwNDExMTUyMTQxWhcNMjMwNDExMTUyMTQxWjA9MSUwIwYD
VQQDDBxzZWxmc2VydmljZSxDTj11c2VyLE89cmVhbG0xMRQwEgYJKoZIhvcNAQkB
FgVtZWluZTCCASIwDQYJKoZIhvcNAQEBBQADggEPADCCAQoCggEBAM881DMOEsTm
2s22VqEcJrsmHIpKc6hYirYes4uZ0h0HwpKJecBp2MjfKGGYHrP+riu9eKn3bkfc
o6AWjIUCwU6S/XJu8MgDKZu4AG7Ag5XINCA2nLPl5OZ2c6MarUCW4FNUAOx2eZrG
DX62vSnsg/PLiaTLbAC6DMV4D/9puJT0BHBDP9ie16f7Xc51jtrnxAexnd5viEu2
TZrP+bz6n80ybfY6Cw0jQnjsl0K/Dk1gVuHTAvIZy4RXkOVwoaKDNYbi2oaf+YrE
ebNSKNrLuzTK09qRSs+NdqKya5v5lv0JKtoRI03wy9aysQ4SbJoZZZiHyuTuJM5E
rJCPnRvFKp0CAwEAAaOCAQ4wggEKMAsGA1UdDwQEAwIFoDAJBgNVHRMEAjAAMBEG
CWCGSAGG+EIBAQQEAwIGQDAzBglghkgBhvhCAQ0EJhYkT3BlblNTTCBHZW5lcmF0
ZWQgU2VydmVyIENlcnRpZmljYXRlMB0GA1UdDgQWBBRNB5Ct/x0N5xrd1i76ujTL
qh8kxjB0BgNVHSMEbTBrgBT0p8DMkUavZPOR8if4yLJviocyc6FIpEYwRDELMAkG
A1UEBhMCREUxDzANBgNVBAgMBkhlc3NlbjEUMBIGA1UECgwLcHJpdmFjeWlkZWEx
DjAMBgNVBAMMBUNBMDAxggkA+8jrrIPNEgcwEwYDVR0lBAwwCgYIKwYBBQUHAwEw
DQYJKoZIhvcNAQELBQADggEBAH7hCPE4HrKeQ7L/kTxtdajutXrKEq6Mv2O4zxaE
Poe3jUXCM3XoRmjYs8CBgQcpq3t7BAmXtaaooP0fqvax+ib+OP0rbwXSMRUoJbkQ
6xYXuvoxy77W1wOqS0dDpdglChrMec+9fsRBNZ7OqKTN24xAjJudGRcFzTbSgyn3
Le+CIiFvRAkjbFCQwTGdtJPp7UuOJ0IJNV2e04VjFZ3U+otP7D/3uUf+oPIBMwq+
G6wk2sev3ohuRAiyKJUR1M3Oo/XcUSVvdW/H7XB/35F+zX1mMrv5mUzqciSHEN+Y
ZjxWOlPDcLyqACWNT89f9Vt9kxndM91LBJuCAsJXKtBTM4g=
-----END CERTIFICATE-----
