Certificate:
    Data:
        Version: 3 (0x2)
        Serial Number: 268435669 (0x100000d5)
        Signature Algorithm: sha256WithRSAEncryption
        Issuer: C=DE, ST=Hessen, O=privacyidea, CN=CA001
        Validity
            Not Before: Apr 11 15:20:56 2022 GMT
            Not After : Apr 11 15:20:56 2023 GMT
        Subject: OU=realm1, CN=cornelius/emailAddress=user@localhost.localdomain
        Subject Public Key Info:
            Public Key Algorithm: rsaEncryption
                RSA Public-Key: (2048 bit)
                Modulus:
                    00:e4:dd:29:56:a9:7e:5b:1d:85:03:47:24:5e:ac:
                    d6:02:6e:e6:f0:fd:6a:20:3e:6f:72:eb:7c:8e:e0:
                    28:03:3f:76:89:62:39:63:92:ed:5d:14:85:1a:40:
                    b3:3e:fe:a9:bc:8a:cc:a9:cc:21:e9:e8:a5:3a:de:
                    a9:23:c4:f6:ca:4b:09:b8:e7:c9:4a:51:66:71:b7:
                    96:4c:14:be:f3:ef:c2:b5:e5:21:ea:6f:de:d0:22:
                    d6:67:73:55:c8:aa:8c:f9:81:32:a4:ba:28:af:86:
                    e8:14:3f:00:aa:92:b5:48:27:5b:ae:86:54:fb:fe:
                    01:66:c2:9f:e3:28:8f:71:01:83:32:4f:59:e4:99:
                    75:a2:4b:39:9e:bb:f4:21:b0:ac:84:51:6a:7f:ed:
                    41:12:cd:72:23:9e:20:13:7f:7c:d0:31:19:4b:7d:
                    78:6b:cf:71:eb:fe:33:60:54:66:16:d9:3d:a5:7a:
                    08:4c:55:99:9b:b1:48:fb:78:99:95:51:3c:0e:eb:
                    00:ab:a3:56:eb:d1:14:a1:29:67:3b:86:c9:43:b3:
                    5b:a8:fe:5c:30:0f:1a:44:14:69:8c:01:1a:1b:83:
                    97:e5:6d:ec:21:67:16:c1:d6:fe:b3:60:c0:fc:ca:
                    9a:f0:52:d6:b2:9c:95:80:07:e6:55:20:cc:36:64:
                    49:a3
                Exponent: 65537 (0x10001)
        X509v3 extensions:
            X509v3 Key Usage: 
                Digital Signature, Key Encipherment
            X509v3 Basic Constraints: 
                CA:FALSE
            Netscape Cert Type: 
                SSL Server
            Netscape Comment: 
                OpenSSL Generated Server Certificate
            X509v3 Subject Key Identifier: 
                F1:0D:BC:96:CF:38:58:DE:29:1F:F9:10:1E:2F:EA:CE:97:FC:5C:6E
            X509v3 Authority Key Identifier: 
                keyid:F4:A7:C0:CC:91:46:AF:64:F3:91:F2:27:F8:C8:B2:6F:8A:87:32:73
                DirName:/C=DE/ST=Hessen/O=privacyidea/CN=CA001
                serial:FB:C8:EB:AC:83:CD:12:07

            X509v3 Extended Key Usage: 
                TLS Web Server Authentication
    Signature Algorithm: sha256WithRSAEncryption
         b7:fa:0b:23:23:0c:4e:51:c0:0d:38:e4:2c:73:9a:b7:5b:12:
         4d:47:b2:a4:fd:e0:46:dd:81:3f:26:80:9d:c5:fa:e6:c3:b2:
         72:3a:2c:a7:cb:04:28:c7:5d:c9:d9:5f:07:74:65:81:de:7b:
         ff:1c:05:3a:eb:7b:34:a4:eb:a5:f2:f6:c3:59:f4:5e:d6:b3:
         0f:f6:6b:24:63:10:ef:0f:7a:92:04:94:64:ea:e6:57:18:09:
         67:1e:07:cc:ab:03:d1:30:ee:cf:fa:7f:ba:ec:48:83:2f:bb:
         94:ef:af:cc:44:e2:a4:5c:49:7a:92:d1:d8:1e:73:7d:99:8a:
         48:3e:8c:9f:27:fc:bd:e9:d6:b0:58:cf:ac:0b:42:de:ed:14:
         b4:b4:bb:f5:61:2f:d2:ed:79:c4:fb:02:21:87:a5:07:93:97:
         32:17:93:7b:b0:4f:de:9d:c4:d6:30:1e:c7:2a:6e:2e:ad:cd:
         29:0b:9d:b6:74:85:fb:10:ad:19:6b:e3:64:c7:50:72:60:e2:
         2f:ec:d8:41:eb:42:87:43:24:cd:9b:de:8a:7a:b2:f9:0e:90:
         07:07:29:f2:b4:38:41:68:18:6a:27:b5:3f:2d:64:a9:73:5c:
         4d:e2:5b:99:37:73:1f:24:f6:e8:ce:a8:ae:49:13:94:ec:e5:
         d4:83:55:b0
-----BEGIN CERTIFICATE-----
MIIEIjCCAwqgAwIBAgIEEAAA1TANBgkqhkiG9w0BAQsFADBEMQswCQYDVQQGEwJE
RTEPMA0GA1UECAwGSGVzc2VuMRQwEgYDVQQKDAtwcml2YWN5aWRlYTEOMAwGA1UE
AwwFQ0EwMDEwHhcNMjIwNDExMTUyMDU2WhcNMjMwNDExMTUyMDU2WjBQMQ8wDQYD
VQQLDAZyZWFsbTExEjAQBgNVBAMMCWNvcm5lbGl1czEpMCcGCSqGSIb3DQEJARYa
dXNlckBsb2NhbGhvc3QubG9jYWxkb21haW4wggEiMA0GCSqGSIb3DQEBAQUAA4IB
DwAwggEKAoIBAQDk3SlWqX5bHYUDRyRerNYCbubw/WogPm9y63yO4CgDP3aJYjlj
ku1dFIUaQLM+/qm8isypzCHp6KU63qkjxPbKSwm458lKUWZxt5ZMFL7z78K15SHq
b97QItZnc1XIqoz5gTKkuiivhugUPwCqkrVIJ1uuhlT7/gFmwp/jKI9xAYMyT1nk
mXWiSzmeu/QhsKyEUWp/7UESzXIjniATf3zQMRlLfXhrz3Hr/jNgVGYW2T2leghM
VZmbsUj7eJmVUTwO6wCro1br0RShKWc7hslDs1uo/lwwDxpEFGmMARobg5flbewh
ZxbB1v6zYMD8yprwUtaynJWAB+ZVIMw2ZEmjAgMBAAGjggEOMIIBCjALBgNVHQ8E
BAMCBaAwCQYDVR0TBAIwADARBglghkgBhvhCAQEEBAMCBkAwMwYJYIZIAYb4QgEN
BCYWJE9wZW5TU0wgR2VuZXJhdGVkIFNlcnZlciBDZXJ0aWZpY2F0ZTAdBgNVHQ4E
FgQU8Q28ls84WN4pH/kQHi/qzpf8XG4wdAYDVR0jBG0wa4AU9KfAzJFGr2TzkfIn
+Miyb4qHMnOhSKRGMEQxCzAJBgNVBAYTAkRFMQ8wDQYDVQQIDAZIZXNzZW4xFDAS
BgNVBAoMC3ByaXZhY3lpZGVhMQ4wDAYDVQQDDAVDQTAwMYIJAPvI66yDzRIHMBMG
A1UdJQQMMAoGCCsGAQUFBwMBMA0GCSqGSIb3DQEBCwUAA4IBAQC3+gsjIwxOUcAN
OOQsc5q3WxJNR7Kk/eBG3YE/JoCdxfrmw7JyOiynywQox13J2V8HdGWB3nv/HAU6
63s0pOul8vbDWfRe1rMP9mskYxDvD3qSBJRk6uZXGAlnHgfMqwPRMO7P+n+67EiD
L7uU76/MROKkXEl6ktHYHnN9mYpIPoyfJ/y96dawWM+sC0Le7RS0tLv1YS/S7XnE
+wIhh6UHk5cyF5N7sE/encTWMB7HKm4urc0pC522dIX7EK0Za+Nkx1ByYOIv7NhB
60KHQyTNm96KerL5DpAHBynytDhBaBhqJ7U/LWSpc1xN4luZN3MfJPbozqiuSROU
7OXUg1Ww
-----END CERTIFICATE-----
