Certificate:
    Data:
        Version: 3 (0x2)
        Serial Number: 268435668 (0x100000d4)
        Signature Algorithm: sha256WithRSAEncryption
        Issuer: C=DE, ST=Hessen, O=privacyidea, CN=CA001
        Validity
            Not Before: Apr 11 15:20:56 2022 GMT
            Not After : Apr 11 15:20:56 2023 GMT
        Subject: CN=cn=cornelius
        Subject Public Key Info:
            Public Key Algorithm: rsaEncryption
                RSA Public-Key: (2048 bit)
                Modulus:
                    00:ce:a4:39:30:25:73:e4:9d:e6:37:3b:85:59:83:
                    ef:a3:6e:f9:83:b9:f7:48:b0:0b:d5:e8:05:40:61:
                    cd:c5:5a:bc:11:2f:5b:4e:d0:4f:b8:d0:e8:7f:05:
                    ab:ad:24:0b:90:d4:3f:60:ec:15:b6:4e:be:8e:d9:
                    26:ab:f2:2f:7f:35:c2:a6:a1:bc:52:3a:d9:88:fb:
                    b3:fa:71:20:b9:51:0e:f8:af:0d:16:be:bd:5d:b9:
                    ab:30:d5:ac:6b:3c:bc:ee:28:4a:4f:6f:d4:09:15:
                    f7:98:af:77:db:36:15:2e:1e:ee:0f:d0:d9:60:ad:
                    db:b9:c4:3f:c6:25:32:f9:e3:e9:50:b8:ec:84:a0:
                    c4:d2:9c:fd:ce:25:80:85:7e:3a:ad:4c:a7:40:1b:
                    0a:58:18:9f:c2:5e:36:e1:d1:44:e9:46:b6:dc:b4:
                    28:a2:ec:ed:02:f7:25:79:e1:86:8e:69:67:52:ee:
                    82:21:b7:84:2d:cc:e7:a8:39:57:7d:a3:1e:e9:50:
                    63:77:29:ab:e4:a5:ff:dc:ee:4c:4b:5e:08:2b:62:
                    08:2d:75:b8:26:6c:93:eb:f5:45:ea:cd:83:58:53:
                    15:46:e6:6b:43:c1:2f:d9:88:4b:3d:d5:fd:0c:ff:
                    51:52:ed:54:fb:27:2d:59:ef:4c:50:ce:71:cd:eb:
                    5a:99
                Exponent: 65537 (0x10001)
        X509v3 extensions:
            X509v3 Key Usage: 
                Digital Signature, Key Encipherment
            X509v3 Basic Constraints: 
                CA:FALSE
            Netscape Cert Type: 
                SSL Server
            Netscape Comment: 
                OpenSSL Generated Server Certificate
            X509v3 Subject Key Identifier: 
                0E:D5:BA:4E:7D:92:57:15:FD:61:4E:34:5B:E9:62:D0:20:1C:7D:08
            X509v3 Authority Key Identifier: 
                keyid:F4:A7:C0:CC:91:46:AF:64:F3:91:F2:27:F8:C8:B2:6F:8A:87:32:73
                DirName:/C=DE/ST=Hessen/O=privacyidea/CN=CA001
                serial:FB:C8:EB:AC:83:CD:12:07

            X509v3 Extended Key Usage: 
                TLS Web Server Authentication
    Signature Algorithm: sha256WithRSAEncryption
         a0:27:8c:d0:11:f9:91:66:68:53:63:0d:40:71:51:36:e5:37:
         fd:51:51:2d:34:9d:a6:ab:4f:6d:78:ed:c7:87:4a:0e:92:1f:
         b4:17:dc:bf:f3:77:14:c5:2e:9f:80:37:15:4f:19:d9:70:96:
         0a:1d:d5:f5:c6:b1:a2:35:b9:a7:80:7a:17:d1:38:f3:6e:4f:
         6d:0e:05:64:d8:a3:47:00:ff:79:e0:0c:cd:9f:c9:42:f8:f4:
         de:3d:cf:56:ff:8f:11:d8:47:57:d2:5c:74:fe:1c:d4:0d:01:
         9b:45:f1:83:aa:44:97:5a:13:72:5b:1d:95:03:86:03:81:61:
         52:85:a7:a0:cc:6c:36:c5:e1:4f:83:9c:66:f4:03:c1:a4:35:
         32:05:65:2a:15:f6:ae:23:5e:51:9f:d0:47:13:df:96:3e:68:
         c8:23:c7:23:05:97:cc:7e:16:8d:28:cc:96:8f:82:f2:75:e2:
         20:90:23:9b:d3:25:dd:8b:05:db:2f:2c:a5:b8:03:7b:3e:ae:
         5e:b6:89:bb:a9:df:e2:21:c8:4d:a7:2a:53:4c:43:27:ff:d1:
         45:44:09:07:3e:ae:10:7b:32:c5:27:c2:fc:7d:3b:7a:a3:66:
         64:03:55:f6:55:f5:7a:46:09:11:6a:3d:6e:f5:26:51:0d:f3:
         20:0c:92:54
-----BEGIN CERTIFICATE-----
MIID6TCCAtGgAwIBAgIEEAAA1DANBgkqhkiG9w0BAQsFADBEMQswCQYDVQQGEwJE
RTEPMA0GA1UECAwGSGVzc2VuMRQwEgYDVQQKDAtwcml2YWN5aWRlYTEOMAwGA1UE
AwwFQ0EwMDEwHhcNMjIwNDExMTUyMDU2WhcNMjMwNDExMTUyMDU2WjAXMRUwEwYD
VQQDDAxjbj1jb3JuZWxpdXMwggEiMA0GCSqGSIb3DQEBAQUAA4IBDwAwggEKAoIB
AQDOpDkwJXPkneY3O4VZg++jbvmDufdIsAvV6AVAYc3FWrwRL1tO0E+40Oh/Baut
JAuQ1D9g7BW2Tr6O2Sar8i9/NcKmobxSOtmI+7P6cSC5UQ74rw0Wvr1duasw1axr
PLzuKEpPb9QJFfeYr3fbNhUuHu4P0Nlgrdu5xD/GJTL54+lQuOyEoMTSnP3OJYCF
fjqtTKdAGwpYGJ/CXjbh0UTpRrbctCii7O0C9yV54YaOaWdS7oIht4QtzOeoOVd9
ox7pUGN3Kavkpf/c7kxLXggrYggtdbgmbJPr9UXqzYNYUxVG5mtDwS/ZiEs91f0M
/1FS7VT7Jy1Z70xQznHN61qZAgMBAAGjggEOMIIBCjALBgNVHQ8EBAMCBaAwCQYD
VR0TBAIwADARBglghkgBhvhCAQEEBAMCBkAwMwYJYIZIAYb4QgENBCYWJE9wZW5T
U0wgR2VuZXJhdGVkIFNlcnZlciBDZXJ0aWZpY2F0ZTAdBgNVHQ4EFgQUDtW6Tn2S
VxX9YU40W+li0CAcfQgwdAYDVR0jBG0wa4AU9KfAzJFGr2TzkfIn+Miyb4qHMnOh
SKRGMEQxCzAJBgNVBAYTAkRFMQ8wDQYDVQQIDAZIZXNzZW4xFDASBgNVBAoMC3By
aXZhY3lpZGVhMQ4wDAYDVQQDDAVDQTAwMYIJAPvI66yDzRIHMBMGA1UdJQQMMAoG
CCsGAQUFBwMBMA0GCSqGSIb3DQEBCwUAA4IBAQCgJ4zQEfmRZmhTYw1AcVE25Tf9
UVEtNJ2mq09teO3Hh0oOkh+0F9y/83cUxS6fgDcVTxnZcJYKHdX1xrGiNbmngHoX
0Tjzbk9tDgVk2KNHAP954AzNn8lC+PTePc9W/48R2EdX0lx0/hzUDQGbRfGDqkSX
WhNyWx2VA4YDgWFShaegzGw2xeFPg5xm9APBpDUyBWUqFfauI15Rn9BHE9+WPmjI
I8cjBZfMfhaNKMyWj4LydeIgkCOb0yXdiwXbLyyluAN7Pq5etom7qd/iIchNpypT
TEMn/9FFRAkHPq4QezLFJ8L8fTt6o2ZkA1X2VfV6RgkRaj1u9SZRDfMgDJJU
-----END CERTIFICATE-----
